; ModuleID = 'source-C-CXX/52/224.c'
source_filename = "source-C-CXX/52/224.c"
target datalayout = "e-m:e-p270:32:32-p271:32:32-p272:64:64-i64:64-f80:128-n8:16:32:64-S128"
target triple = "x86_64-pc-linux-gnu"

@.str = private unnamed_addr constant [3 x i8] c"%d\00", align 1
@.str.1 = private unnamed_addr constant [4 x i8] c",%d\00", align 1

; Function Attrs: nofree nounwind sspstrong uwtable
define dso_local void @main() local_unnamed_addr #0 {
  %1 = alloca [300 x i32], align 16
  %2 = alloca [300 x i32], align 16
  %3 = alloca i32, align 4
  %4 = bitcast [300 x i32]* %1 to i8*
  call void @llvm.lifetime.start.p0i8(i64 1200, i8* nonnull %4) #3
  %5 = bitcast [300 x i32]* %2 to i8*
  call void @llvm.lifetime.start.p0i8(i64 1200, i8* nonnull %5) #3
  %6 = bitcast i32* %3 to i8*
  call void @llvm.lifetime.start.p0i8(i64 4, i8* nonnull %6) #3
  %7 = call i32 (i8*, ...) @__isoc99_scanf(i8* getelementptr inbounds ([3 x i8], [3 x i8]* @.str, i64 0, i64 0), i32* nonnull %3)
  %8 = load i32, i32* %3, align 4, !tbaa !5
  %9 = icmp sgt i32 %8, 0
  br i1 %9, label %10, label %21

10:                                               ; preds = %0, %10
  %11 = phi i64 [ %14, %10 ], [ 0, %0 ]
  %12 = getelementptr inbounds [300 x i32], [300 x i32]* %1, i64 0, i64 %11
  %13 = call i32 (i8*, ...) @__isoc99_scanf(i8* getelementptr inbounds ([3 x i8], [3 x i8]* @.str, i64 0, i64 0), i32* nonnull %12)
  %14 = add nuw nsw i64 %11, 1
  %15 = load i32, i32* %3, align 4, !tbaa !5
  %16 = sext i32 %15 to i64
  %17 = icmp slt i64 %14, %16
  br i1 %17, label %10, label %18, !llvm.loop !9

18:                                               ; preds = %10
  %19 = getelementptr inbounds [300 x i32], [300 x i32]* %1, i64 0, i64 0
  %20 = load i32, i32* %19, align 16, !tbaa !5
  br label %21

21:                                               ; preds = %18, %0
  %22 = phi i32 [ %20, %18 ], [ undef, %0 ]
  %23 = getelementptr inbounds [300 x i32], [300 x i32]* %2, i64 0, i64 0
  store i32 %22, i32* %23, align 16, !tbaa !5
  %24 = call i32 (i8*, ...) @printf(i8* nonnull dereferenceable(1) getelementptr inbounds ([3 x i8], [3 x i8]* @.str, i64 0, i64 0), i32 %22)
  %25 = load i32, i32* %3, align 4, !tbaa !5
  %26 = icmp sgt i32 %25, 1
  br i1 %26, label %27, label %56

27:                                               ; preds = %21, %50
  %28 = phi i32 [ %51, %50 ], [ %25, %21 ]
  %29 = phi i64 [ %53, %50 ], [ 1, %21 ]
  %30 = phi i32 [ %52, %50 ], [ 0, %21 ]
  %31 = icmp slt i32 %30, 0
  %32 = getelementptr inbounds [300 x i32], [300 x i32]* %1, i64 0, i64 %29
  %33 = load i32, i32* %32, align 4, !tbaa !5
  %34 = add i32 %30, 1
  br i1 %31, label %45, label %35

35:                                               ; preds = %27
  %36 = zext i32 %34 to i64
  br label %40

37:                                               ; preds = %40
  %38 = add nuw nsw i64 %41, 1
  %39 = icmp eq i64 %38, %36
  br i1 %39, label %45, label %40, !llvm.loop !11

40:                                               ; preds = %35, %37
  %41 = phi i64 [ 0, %35 ], [ %38, %37 ]
  %42 = getelementptr inbounds [300 x i32], [300 x i32]* %2, i64 0, i64 %41
  %43 = load i32, i32* %42, align 4, !tbaa !5
  %44 = icmp eq i32 %33, %43
  br i1 %44, label %50, label %37

45:                                               ; preds = %37, %27
  %46 = sext i32 %34 to i64
  %47 = getelementptr inbounds [300 x i32], [300 x i32]* %2, i64 0, i64 %46
  store i32 %33, i32* %47, align 4, !tbaa !5
  %48 = call i32 (i8*, ...) @printf(i8* nonnull dereferenceable(1) getelementptr inbounds ([4 x i8], [4 x i8]* @.str.1, i64 0, i64 0), i32 %33)
  %49 = load i32, i32* %3, align 4, !tbaa !5
  br label %50

50:                                               ; preds = %40, %45
  %51 = phi i32 [ %49, %45 ], [ %28, %40 ]
  %52 = phi i32 [ %34, %45 ], [ %30, %40 ]
  %53 = add nuw nsw i64 %29, 1
  %54 = sext i32 %51 to i64
  %55 = icmp slt i64 %53, %54
  br i1 %55, label %27, label %56, !llvm.loop !12

56:                                               ; preds = %50, %21
  call void @llvm.lifetime.end.p0i8(i64 4, i8* nonnull %6) #3
  call void @llvm.lifetime.end.p0i8(i64 1200, i8* nonnull %5) #3
  call void @llvm.lifetime.end.p0i8(i64 1200, i8* nonnull %4) #3
  ret void
}

; Function Attrs: argmemonly mustprogress nofree nosync nounwind willreturn
declare void @llvm.lifetime.start.p0i8(i64 immarg, i8* nocapture) #1

; Function Attrs: nofree nounwind
declare noundef i32 @__isoc99_scanf(i8* nocapture noundef readonly, ...) local_unnamed_addr #2

; Function Attrs: nofree nounwind
declare noundef i32 @printf(i8* nocapture noundef readonly, ...) local_unnamed_addr #2

; Function Attrs: argmemonly mustprogress nofree nosync nounwind willreturn
declare void @llvm.lifetime.end.p0i8(i64 immarg, i8* nocapture) #1


!llvm.module.flags = !{!0, !1, !2, !3}
!llvm.ident = !{!4}

!0 = !{i32 1, !"wchar_size", i32 4}
!1 = !{i32 7, !"PIC Level", i32 2}
!2 = !{i32 7, !"PIE Level", i32 2}
!3 = !{i32 7, !"uwtable", i32 1}
!4 = !{!"clang version 13.0.0"}
!5 = !{!6, !6, i64 0}
!6 = !{!"int", !7, i64 0}
!7 = !{!"omnipotent char", !8, i64 0}
!8 = !{!"Simple C/C++ TBAA"}
!9 = distinct !{!9, !10}
!10 = !{!"llvm.loop.mustprogress"}
!11 = distinct !{!11, !10}
!12 = distinct !{!12, !10}
